target datalayout = "e-m:e-p270:32:32-p271:32:32-p272:64:64-i64:64-i128:128-f80:128-n8:16:32:64-S128"
target triple = "x86_64-pc-linux-gnu"

%struct.TypeCacheEntry = type { i32, i32, i16, i8, i8, i8, i8, i32, i32, i32, i32, i32, i32, i32, i32, i32, i32, i32, i32, i32, i32, %struct.FmgrInfo, %struct.FmgrInfo, %struct.FmgrInfo, %struct.FmgrInfo, ptr, i64, ptr, i32, i32, %struct.FmgrInfo, %struct.FmgrInfo, %struct.FmgrInfo, ptr, i32, i32, ptr, i32, ptr, ptr }
%struct.FmgrInfo = type { ptr, i32, i16, i8, i8, i8, ptr, ptr, ptr }

@.str = private unnamed_addr constant [49 x i8] c"arraycontsel called for unrecognized operator %u\00", align 1
@.str.1 = private unnamed_addr constant [17 x i8] c"array_selfuncs.c\00", align 1
@__func__.mcelem_array_selec = private unnamed_addr constant [19 x i8] c"mcelem_array_selec\00", align 1

; Function Attrs: nounwind uwtable
define internal double @mcelem_array_selec(ptr noundef %0, ptr noundef %1, ptr noundef %2, i32 noundef %3, ptr noundef %4, i32 noundef %5, ptr noundef %6, i32 noundef %7, i32 noundef %8) #0 {
  %10 = alloca double, align 8
  %11 = alloca ptr, align 8
  %12 = alloca ptr, align 8
  %13 = alloca ptr, align 8
  %14 = alloca i32, align 4
  %15 = alloca ptr, align 8
  %16 = alloca i32, align 4
  %17 = alloca ptr, align 8
  %18 = alloca i32, align 4
  %19 = alloca i32, align 4
  %20 = alloca double, align 8
  %21 = alloca i32, align 4
  %22 = alloca ptr, align 8
  %23 = alloca ptr, align 8
  %24 = alloca i8, align 1
  %25 = alloca i32, align 4
  %26 = alloca i32, align 4
  %27 = alloca i32, align 4
  store ptr %0, ptr %11, align 8
  store ptr %1, ptr %12, align 8
  store ptr %2, ptr %13, align 8
  store i32 %3, ptr %14, align 4
  store ptr %4, ptr %15, align 8
  store i32 %5, ptr %16, align 4
  store ptr %6, ptr %17, align 8
  store i32 %7, ptr %18, align 4
  store i32 %8, ptr %19, align 4
  call void @llvm.lifetime.start.p0(i64 8, ptr %20) #8
  call void @llvm.lifetime.start.p0(i64 4, ptr %21) #8
  call void @llvm.lifetime.start.p0(i64 8, ptr %22) #8
  call void @llvm.lifetime.start.p0(i64 8, ptr %23) #8
  call void @llvm.lifetime.start.p0(i64 1, ptr %24) #8
  call void @llvm.lifetime.start.p0(i64 4, ptr %25) #8
  call void @llvm.lifetime.start.p0(i64 4, ptr %26) #8
  %28 = load ptr, ptr %11, align 8
  %29 = load ptr, ptr %12, align 8
  %30 = getelementptr inbounds nuw %struct.TypeCacheEntry, ptr %29, i32 0, i32 0
  %31 = load i32, ptr %30, align 8
  %32 = load ptr, ptr %12, align 8
  %33 = getelementptr inbounds nuw %struct.TypeCacheEntry, ptr %32, i32 0, i32 2
  %34 = load i16, ptr %33, align 8
  %35 = sext i16 %34 to i32
  %36 = load ptr, ptr %12, align 8
  %37 = getelementptr inbounds nuw %struct.TypeCacheEntry, ptr %36, i32 0, i32 3
  %38 = load i8, ptr %37, align 2, !range !4, !noundef !5
  %39 = trunc i8 %38 to i1
  %40 = load ptr, ptr %12, align 8
  %41 = getelementptr inbounds nuw %struct.TypeCacheEntry, ptr %40, i32 0, i32 4
  %42 = load i8, ptr %41, align 1
  call void @deconstruct_array(ptr noundef %28, i32 noundef %31, i32 noundef %35, i1 noundef zeroext %39, i8 noundef signext %42, ptr noundef %22, ptr noundef %23, ptr noundef %21)
  store i32 0, ptr %25, align 4
  store i8 0, ptr %24, align 1
  store i32 0, ptr %26, align 4
  br label %43

43:                                               ; preds = %67, %9
  %44 = load i32, ptr %26, align 4
  %45 = load i32, ptr %21, align 4
  %46 = icmp slt i32 %44, %45
  br i1 %46, label %47, label %70

47:                                               ; preds = %43
  %48 = load ptr, ptr %23, align 8
  %49 = load i32, ptr %26, align 4
  %50 = sext i32 %49 to i64
  %51 = getelementptr inbounds i8, ptr %48, i64 %50
  %52 = load i8, ptr %51, align 1, !range !4, !noundef !5
  %53 = trunc i8 %52 to i1
  br i1 %53, label %54, label %55

54:                                               ; preds = %47
  store i8 1, ptr %24, align 1
  br label %66

55:                                               ; preds = %47
  %56 = load ptr, ptr %22, align 8
  %57 = load i32, ptr %26, align 4
  %58 = sext i32 %57 to i64
  %59 = getelementptr inbounds i64, ptr %56, i64 %58
  %60 = load i64, ptr %59, align 8
  %61 = load ptr, ptr %22, align 8
  %62 = load i32, ptr %25, align 4
  %63 = add i32 %62, 1
  store i32 %63, ptr %25, align 4
  %64 = sext i32 %62 to i64
  %65 = getelementptr inbounds i64, ptr %61, i64 %64
  store i64 %60, ptr %65, align 8
  br label %66

66:                                               ; preds = %55, %54
  br label %67

67:                                               ; preds = %66
  %68 = load i32, ptr %26, align 4
  %69 = add i32 %68, 1
  store i32 %69, ptr %26, align 4
  br label %43, !llvm.loop !13

70:                                               ; preds = %43
  %71 = load i8, ptr %24, align 1, !range !4, !noundef !5
  %72 = trunc i8 %71 to i1
  br i1 %72, label %73, label %79

73:                                               ; preds = %70
  %74 = load i32, ptr %19, align 4
  %75 = icmp eq i32 %74, 2751
  br i1 %75, label %76, label %79

76:                                               ; preds = %73
  %77 = load ptr, ptr %22, align 8
  call void @pfree(ptr noundef %77)
  %78 = load ptr, ptr %23, align 8
  call void @pfree(ptr noundef %78)
  store double 0.000000e+00, ptr %10, align 8
  store i32 1, ptr %27, align 4
  br label %131

79:                                               ; preds = %73, %70
  %80 = load ptr, ptr %22, align 8
  %81 = load i32, ptr %25, align 4
  %82 = sext i32 %81 to i64
  %83 = load ptr, ptr %12, align 8
  call void @qsort_arg(ptr noundef %80, i64 noundef %82, i64 noundef 8, ptr noundef @element_compare, ptr noundef %83)
  %84 = load i32, ptr %19, align 4
  %85 = icmp eq i32 %84, 2751
  br i1 %85, label %89, label %86

86:                                               ; preds = %79
  %87 = load i32, ptr %19, align 4
  %88 = icmp eq i32 %87, 2750
  br i1 %88, label %89, label %99

89:                                               ; preds = %86, %79
  %90 = load ptr, ptr %13, align 8
  %91 = load i32, ptr %14, align 4
  %92 = load ptr, ptr %15, align 8
  %93 = load i32, ptr %16, align 4
  %94 = load ptr, ptr %22, align 8
  %95 = load i32, ptr %25, align 4
  %96 = load i32, ptr %19, align 4
  %97 = load ptr, ptr %12, align 8
  %98 = call double @mcelem_array_contain_overlap_selec(ptr noundef %90, i32 noundef %91, ptr noundef %92, i32 noundef %93, ptr noundef %94, i32 noundef %95, i32 noundef %96, ptr noundef %97)
  store double %98, ptr %20, align 8
  br label %127

99:                                               ; preds = %86
  %100 = load i32, ptr %19, align 4
  %101 = icmp eq i32 %100, 2752
  br i1 %101, label %102, label %114

102:                                              ; preds = %99
  %103 = load ptr, ptr %13, align 8
  %104 = load i32, ptr %14, align 4
  %105 = load ptr, ptr %15, align 8
  %106 = load i32, ptr %16, align 4
  %107 = load ptr, ptr %22, align 8
  %108 = load i32, ptr %25, align 4
  %109 = load ptr, ptr %17, align 8
  %110 = load i32, ptr %18, align 4
  %111 = load i32, ptr %19, align 4
  %112 = load ptr, ptr %12, align 8
  %113 = call double @mcelem_array_contained_selec(ptr noundef %103, i32 noundef %104, ptr noundef %105, i32 noundef %106, ptr noundef %107, i32 noundef %108, ptr noundef %109, i32 noundef %110, i32 noundef %111, ptr noundef %112)
  store double %113, ptr %20, align 8
  br label %126

114:                                              ; preds = %99
  br label %115

115:                                              ; preds = %114
  br i1 true, label %116, label %118

116:                                              ; preds = %115
  %117 = call zeroext i1 @errstart_cold(i32 noundef 21, ptr noundef null) #9
  br i1 %117, label %120, label %123

118:                                              ; preds = %115
  %119 = call zeroext i1 @errstart(i32 noundef 21, ptr noundef null)
  br i1 %119, label %120, label %123

120:                                              ; preds = %118, %116
  %121 = load i32, ptr %19, align 4
  %122 = call i32 (ptr, ...) @errmsg_internal(ptr noundef @.str, i32 noundef %121)
  call void @errfinish(ptr noundef @.str.1, i32 noundef 494, ptr noundef @__func__.mcelem_array_selec)
  br label %123

123:                                              ; preds = %120, %118, %116
  unreachable

124:                                              ; No predecessors!
  br label %125

125:                                              ; preds = %124
  store double 0.000000e+00, ptr %20, align 8
  br label %126

126:                                              ; preds = %125, %102
  br label %127

127:                                              ; preds = %126, %89
  %128 = load ptr, ptr %22, align 8
  call void @pfree(ptr noundef %128)
  %129 = load ptr, ptr %23, align 8
  call void @pfree(ptr noundef %129)
  %130 = load double, ptr %20, align 8
  store double %130, ptr %10, align 8
  store i32 1, ptr %27, align 4
  br label %131

131:                                              ; preds = %127, %76
  call void @llvm.lifetime.end.p0(i64 4, ptr %26) #8
  call void @llvm.lifetime.end.p0(i64 4, ptr %25) #8
  call void @llvm.lifetime.end.p0(i64 1, ptr %24) #8
  call void @llvm.lifetime.end.p0(i64 8, ptr %23) #8
  call void @llvm.lifetime.end.p0(i64 8, ptr %22) #8
  call void @llvm.lifetime.end.p0(i64 4, ptr %21) #8
  call void @llvm.lifetime.end.p0(i64 8, ptr %20) #8
  %132 = load double, ptr %10, align 8
  ret double %132
}