; Function Attrs: nounwind uwtable
define internal fastcc double @mcelem_array_selec(ptr noundef %0, ptr noundef %1, ptr noundef readonly captures(none) %2, i32 noundef %3, ptr noundef captures(address) %4, i32 noundef %5, ptr noundef captures(address_is_null) %6, i32 noundef %7, i32 noundef %8) unnamed_addr #0 {
  %10 = alloca i32, align 4
  %11 = alloca ptr, align 8
  %12 = alloca ptr, align 8
  call void @llvm.lifetime.start.p0(i64 4, ptr nonnull %10) #10
  call void @llvm.lifetime.start.p0(i64 8, ptr nonnull %11) #10
  call void @llvm.lifetime.start.p0(i64 8, ptr nonnull %12) #10
  %13 = load i32, ptr %1, align 8
  %14 = getelementptr inbounds nuw i8, ptr %1, i64 8
  %15 = load i16, ptr %14, align 8
  %16 = sext i16 %15 to i32
  %17 = getelementptr inbounds nuw i8, ptr %1, i64 10
  %18 = load i8, ptr %17, align 2, !range !4, !noundef !5
  %19 = trunc nuw i8 %18 to i1
  %20 = getelementptr inbounds nuw i8, ptr %1, i64 11
  %21 = load i8, ptr %20, align 1
  call void @deconstruct_array(ptr noundef %0, i32 noundef %13, i32 noundef %16, i1 noundef zeroext %19, i8 noundef signext %21, ptr noundef nonnull %11, ptr noundef nonnull %12, ptr noundef nonnull %10) #10
  %22 = load i32, ptr %10, align 4
  %23 = icmp sgt i32 %22, 0
  br i1 %23, label %.lr.ph.preheader, label %._crit_edge.thread

.lr.ph.preheader:                                 ; preds = %9
  %wide.trip.count = zext nneg i32 %22 to i64
  br label %.lr.ph

.lr.ph:                                           ; preds = %.lr.ph.preheader, %35
  %indvars.iv = phi i64 [ 0, %.lr.ph.preheader ], [ %indvars.iv.next, %35 ]
  %.03845 = phi i32 [ 0, %.lr.ph.preheader ], [ %.1, %35 ]
  %.03944 = phi i1 [ false, %.lr.ph.preheader ], [ %.140, %35 ]
  %24 = load ptr, ptr %12, align 8
  %25 = getelementptr inbounds nuw i8, ptr %24, i64 %indvars.iv
  %26 = load i8, ptr %25, align 1, !range !4, !noundef !5
  %27 = trunc nuw i8 %26 to i1
  br i1 %27, label %35, label %28

28:                                               ; preds = %.lr.ph
  %29 = load ptr, ptr %11, align 8
  %30 = getelementptr inbounds nuw i64, ptr %29, i64 %indvars.iv
  %31 = load i64, ptr %30, align 8
  %32 = add i32 %.03845, 1
  %33 = sext i32 %.03845 to i64
  %34 = getelementptr inbounds i64, ptr %29, i64 %33
  store i64 %31, ptr %34, align 8
  br label %35

35:                                               ; preds = %.lr.ph, %28
  %.140 = phi i1 [ %.03944, %28 ], [ true, %.lr.ph ]
  %.1 = phi i32 [ %32, %28 ], [ %.03845, %.lr.ph ]
  %indvars.iv.next = add nuw nsw i64 %indvars.iv, 1
  %exitcond.not = icmp eq i64 %indvars.iv.next, %wide.trip.count
  br i1 %exitcond.not, label %._crit_edge, label %.lr.ph, !llvm.loop !19

._crit_edge:                                      ; preds = %35
  %36 = icmp eq i32 %8, 2751
  %or.cond = and i1 %36, %.140
  br i1 %or.cond, label %51, label %._crit_edge.thread

._crit_edge.thread:                               ; preds = %9, %._crit_edge
  %.038.lcssa51 = phi i32 [ %.1, %._crit_edge ], [ 0, %9 ]
  %37 = load ptr, ptr %11, align 8
  %38 = sext i32 %.038.lcssa51 to i64
  call void @qsort_arg(ptr noundef %37, i64 noundef %38, i64 noundef 8, ptr noundef nonnull @element_compare, ptr noundef nonnull %1) #10
  %39 = and i32 %8, -2
  %or.cond3 = icmp eq i32 %39, 2750
  br i1 %or.cond3, label %40, label %43

40:                                               ; preds = %._crit_edge.thread
  %41 = load ptr, ptr %11, align 8
  %42 = call fastcc double @mcelem_array_contain_overlap_selec(ptr noundef %2, i32 noundef %3, ptr noundef %4, i32 noundef %5, ptr noundef %41, i32 noundef %.038.lcssa51, i32 noundef %8, ptr noundef nonnull %1)
  br label %51

43:                                               ; preds = %._crit_edge.thread
  %44 = icmp eq i32 %8, 2752
  br i1 %44, label %45, label %48

45:                                               ; preds = %43
  %46 = load ptr, ptr %11, align 8
  %47 = call fastcc double @mcelem_array_contained_selec(ptr noundef %2, i32 noundef %3, ptr noundef %4, i32 noundef %5, ptr noundef %46, i32 noundef %.038.lcssa51, ptr noundef %6, i32 noundef %7, ptr noundef nonnull %1)
  br label %51

48:                                               ; preds = %43
  %49 = call zeroext i1 @errstart_cold(i32 noundef 21, ptr noundef null) #11
  call void @llvm.assume(i1 %49)
  %50 = call i32 (ptr, ...) @errmsg_internal(ptr noundef nonnull @.str, i32 noundef %8) #10
  call void @errfinish(ptr noundef nonnull @.str.1, i32 noundef 494, ptr noundef nonnull @__func__.mcelem_array_selec) #10
  unreachable

51:                                               ; preds = %40, %45, %._crit_edge
  %.042 = phi double [ 0.000000e+00, %._crit_edge ], [ %42, %40 ], [ %47, %45 ]
  %52 = load ptr, ptr %11, align 8
  call void @pfree(ptr noundef %52) #10
  %53 = load ptr, ptr %12, align 8
  call void @pfree(ptr noundef %53) #10
  call void @llvm.lifetime.end.p0(i64 8, ptr nonnull %12) #10
  call void @llvm.lifetime.end.p0(i64 8, ptr nonnull %11) #10
  call void @llvm.lifetime.end.p0(i64 4, ptr nonnull %10) #10
  ret double %.042
}